ccopy_reg
_reconstructor
p0
(cgmplot.gmplot
GoogleMapPlotter
p1
c__builtin__
object
p2
Ntp3
Rp4
(dp5
S'paths'
p6
(lp7
sS'apikey'
p8
S''
p9
sS'center'
p10
(F39.7392358
F-104.990251
tp11
sS'grids'
p12
NsS'zoom'
p13
I13
sS'gridsetting'
p14
NsS'shapes'
p15
(lp16
sS'radpoints'
p17
(lp18
sS'color_dict'
p19
(dp20
S'c'
p21
S'cyan'
p22
sS'b'
p23
S'blue'
p24
sS'w'
p25
S'white'
p26
sS'g'
p27
S'green'
p28
sS'y'
p29
S'yellow'
p30
sS'k'
p31
S'black'
p32
sS'r'
p33
S'red'
p34
sS'm'
p35
S'magenta'
p36
ssS'points'
p37
(lp38
sS'html_color_codes'
p39
(dp40
S'indigo'
p41
S'#4B0082'
p42
sS'gold'
p43
S'#FFD700'
p44
sS'hotpink'
p45
S'#FF69B4'
p46
sS'firebrick'
p47
S'#B22222'
p48
sS'indianred'
p49
S'#CD5C5C'
p50
sg30
S'#FFFF00'
p51
sS'mistyrose'
p52
S'#FFE4E1'
p53
sS'darkolivegreen'
p54
S'#556B2F'
p55
sS'olive'
p56
S'#808000'
p57
sS'darkseagreen'
p58
S'#8FBC8F'
p59
sS'pink'
p60
S'#FFC0CB'
p61
sS'tomato'
p62
S'#FF6347'
p63
sS'lightcoral'
p64
S'#F08080'
p65
sS'orangered'
p66
S'#FF4500'
p67
sS'navajowhite'
p68
S'#FFDEAD'
p69
sS'lime'
p70
S'#00FF00'
p71
sS'palegreen'
p72
S'#98FB98'
p73
sS'greenyellow'
p74
S'#ADFF2F'
p75
sS'burlywood'
p76
S'#DEB887'
p77
sS'seashell'
p78
S'#FFF5EE'
p79
sS'mediumspringgreen'
p80
S'#00FA9A'
p81
sS'fuchsia'
p82
S'#FF00FF'
p83
sS'papayawhip'
p84
S'#FFEFD5'
p85
sS'blanchedalmond'
p86
S'#FFEBCD'
p87
sS'chartreuse'
p88
S'#7FFF00'
p89
sS'dimgray'
p90
S'#696969'
p91
sg32
S'#000000'
p92
sS'peachpuff'
p93
S'#FFDAB9'
p94
sS'springgreen'
p95
S'#00FF7F'
p96
sS'aquamarine'
p97
S'#7FFFD4'
p98
sg26
S'#FFFFFF'
p99
sS'orange'
p100
S'#FFA500'
p101
sS'lightsalmon'
p102
S'#FFA07A'
p103
sS'darkslategray'
p104
S'#2F4F4F'
p105
sS'brown'
p106
S'#A52A2A'
p107
sS'ivory'
p108
S'#FFFFF0'
p109
sS'dodgerblue'
p110
S'#1E90FF'
p111
sS'peru'
p112
S'#CD853F'
p113
sS'lawngreen'
p114
S'#7CFC00'
p115
sS'chocolate'
p116
S'#D2691E'
p117
sS'crimson'
p118
S'#DC143C'
p119
sS'forestgreen'
p120
S'#228B22'
p121
sS'slateblue'
p122
S'#6A5ACD'
p123
sS'lightseagreen'
p124
S'#20B2AA'
p125
sg22
S'#00FFFF'
p126
sS'mintcream'
p127
S'#F5FFFA'
p128
sS'silver'
p129
S'#C0C0C0'
p130
sS'antiquewhite'
p131
S'#FAEBD7'
p132
sS'mediumorchid'
p133
S'#BA55D3'
p134
sS'skyblue'
p135
S'#87CEEB'
p136
sS'gray'
p137
S'#808080'
p138
sS'darkturquoise'
p139
S'#00CED1'
p140
sS'goldenrod'
p141
S'#DAA520'
p142
sS'darkgreen'
p143
S'#006400'
p144
sS'floralwhite'
p145
S'#FFFAF0'
p146
sS'darkviolet'
p147
S'#9400D3'
p148
sS'darkgray'
p149
S'#A9A9A9'
p150
sS'moccasin'
p151
S'#FFE4B5'
p152
sS'saddlebrown'
p153
S'#8B4513'
p154
sS'darkslateblue'
p155
S'#483D8B'
p156
sS'lightskyblue'
p157
S'#87CEFA'
p158
sS'lightpink'
p159
S'#FFB6C1'
p160
sS'mediumvioletred'
p161
S'#C71585'
p162
sg34
S'#FF0000'
p163
sS'deeppink'
p164
S'#FF1493'
p165
sS'limegreen'
p166
S'#32CD32'
p167
sS'darkmagenta'
p168
S'#8B008B'
p169
sS'palegoldenrod'
p170
S'#EEE8AA'
p171
sS'plum'
p172
S'#DDA0DD'
p173
sS'turquoise'
p174
S'#40E0D0'
p175
sS'lightgoldenrodyellow'
p176
S'#FAFAD2'
p177
sS'darkgoldenrod'
p178
S'#B8860B'
p179
sS'lavender'
p180
S'#E6E6FA'
p181
sS'maroon'
p182
S'#800000'
p183
sS'yellowgreen'
p184
S'#9ACD32'
p185
sS'sandybrown'
p186
S'#F4A460'
p187
sS'thistle'
p188
S'#D8BFD8'
p189
sS'violet'
p190
S'#EE82EE'
p191
sS'navy'
p192
S'#000080'
p193
sg36
g83
sS'tan'
p194
S'#D2B48C'
p195
sS'rosybrown'
p196
S'#BC8F8F'
p197
sS'olivedrab'
p198
S'#6B8E23'
p199
sg24
S'#0000FF'
p200
sS'lightblue'
p201
S'#ADD8E6'
p202
sS'ghostwhite'
p203
S'#F8F8FF'
p204
sS'honeydew'
p205
S'#F0FFF0'
p206
sS'cornflowerblue'
p207
S'#6495ED'
p208
sS'linen'
p209
S'#FAF0E6'
p210
sS'darkblue'
p211
S'#00008B'
p212
sS'powderblue'
p213
S'#B0E0E6'
p214
sS'seagreen'
p215
S'#2E8B57'
p216
sS'darkkhaki'
p217
S'#BDB76B'
p218
sS'snow'
p219
S'#FFFAFA'
p220
sS'sienna'
p221
S'#A0522D'
p222
sS'mediumblue'
p223
S'#0000CD'
p224
sS'royalblue'
p225
S'#4169E1'
p226
sS'lightcyan'
p227
S'#E0FFFF'
p228
sg28
S'#008000'
p229
sS'mediumpurple'
p230
S'#9370DB'
p231
sS'midnightblue'
p232
S'#191970'
p233
sS'cornsilk'
p234
S'#FFF8DC'
p235
sS'paleturquoise'
p236
S'#AFEEEE'
p237
sS'bisque'
p238
S'#FFE4C4'
p239
sS'slategray'
p240
S'#708090'
p241
sS'darkcyan'
p242
S'#008B8B'
p243
sS'khaki'
p244
S'#F0E68C'
p245
sS'wheat'
p246
S'#F5DEB3'
p247
sS'teal'
p248
S'#008080'
p249
sS'darkorchid'
p250
S'#9932CC'
p251
sS'deepskyblue'
p252
S'#00BFFF'
p253
sS'salmon'
p254
S'#FA8072'
p255
sS'darkred'
p256
S'#8B0000'
p257
sS'steelblue'
p258
S'#4682B4'
p259
sS'palevioletred'
p260
S'#DB7093'
p261
sS'lightslategray'
p262
S'#778899'
p263
sS'aliceblue'
p264
S'#F0F8FF'
p265
sS'lightgreen'
p266
S'#90EE90'
p267
sS'orchid'
p268
S'#DA70D6'
p269
sS'gainsboro'
p270
S'#DCDCDC'
p271
sS'mediumseagreen'
p272
S'#3CB371'
p273
sS'lightgray'
p274
S'#D3D3D3'
p275
sS'mediumturquoise'
p276
S'#48D1CC'
p277
sS'lemonchiffon'
p278
S'#FFFACD'
p279
sS'cadetblue'
p280
S'#5F9EA0'
p281
sS'lightyellow'
p282
S'#FFFFE0'
p283
sS'lavenderblush'
p284
S'#FFF0F5'
p285
sS'coral'
p286
S'#FF7F50'
p287
sS'purple'
p288
S'#800080'
p289
sS'aqua'
p290
g126
sS'whitesmoke'
p291
S'#F5F5F5'
p292
sS'mediumslateblue'
p293
S'#7B68EE'
p294
sS'darkorange'
p295
S'#FF8C00'
p296
sS'mediumaquamarine'
p297
S'#66CDAA'
p298
sS'darksalmon'
p299
S'#E9967A'
p300
sS'beige'
p301
S'#F5F5DC'
p302
sS'blueviolet'
p303
S'#8A2BE2'
p304
sS'azure'
p305
S'#F0FFFF'
p306
sS'lightsteelblue'
p307
S'#B0C4DE'
p308
sS'oldlace'
p309
S'#FDF5E6'
p310
ssS'heatmap_points'
p311
(lp312
sS'coloricon'
p313
S'C:\\Anaconda2\\lib\\site-packages\\gmplot\\markers/%s.png'
p314
sb.